; ModuleID = '12/717.c'
source_filename = "12/717.c"
target datalayout = "e-m:e-p270:32:32-p271:32:32-p272:64:64-i64:64-f80:128-n8:16:32:64-S128"
target triple = "x86_64-pc-linux-gnu"

@.str = private unnamed_addr constant [3 x i8] c"%d\00", align 1
@.str.1 = private unnamed_addr constant [4 x i8] c"%d\0A\00", align 1

; Function Attrs: noinline nounwind uwtable
define dso_local i32 @main() #0 {
  %1 = alloca i32, align 4
  %2 = alloca [100 x i32], align 16
  %3 = alloca [100 x i32], align 16
  %4 = alloca i32, align 4
  %5 = alloca i32, align 4
  %6 = alloca i32, align 4
  %7 = alloca i32, align 4
  %8 = alloca i32, align 4
  %9 = alloca [20 x i32], align 16
  %10 = alloca i32, align 4
  store i32 0, i32* %1, align 4
  store i32 0, i32* %10, align 4
  br label %11

11:                                               ; preds = %123, %0
  %12 = call i32 (i8*, ...) @__isoc99_scanf(i8* getelementptr inbounds ([3 x i8], [3 x i8]* @.str, i64 0, i64 0), i32* %5)
  %13 = load i32, i32* %5, align 4
  %14 = icmp ne i32 %13, -1
  br i1 %14, label %15, label %126

15:                                               ; preds = %11
  %16 = load i32, i32* %10, align 4
  %17 = sext i32 %16 to i64
  %18 = getelementptr inbounds [20 x i32], [20 x i32]* %9, i64 0, i64 %17
  store i32 0, i32* %18, align 4
  store i32 0, i32* %4, align 4
  %19 = load i32, i32* %5, align 4
  %20 = getelementptr inbounds [100 x i32], [100 x i32]* %2, i64 0, i64 0
  store i32 %19, i32* %20, align 16
  br label %21

21:                                               ; preds = %33, %15
  %22 = load i32, i32* %4, align 4
  %23 = add nsw i32 %22, 1
  store i32 %23, i32* %4, align 4
  %24 = load i32, i32* %4, align 4
  %25 = sext i32 %24 to i64
  %26 = getelementptr inbounds [100 x i32], [100 x i32]* %2, i64 0, i64 %25
  %27 = call i32 (i8*, ...) @__isoc99_scanf(i8* getelementptr inbounds ([3 x i8], [3 x i8]* @.str, i64 0, i64 0), i32* %26)
  %28 = load i32, i32* %4, align 4
  %29 = sext i32 %28 to i64
  %30 = getelementptr inbounds [100 x i32], [100 x i32]* %2, i64 0, i64 %29
  %31 = load i32, i32* %30, align 4
  %32 = icmp ne i32 %31, 0
  br i1 %32, label %33, label %34

33:                                               ; preds = %21
  br label %21

34:                                               ; preds = %21
  store i32 0, i32* %6, align 4
  br label %35

35:                                               ; preds = %82, %34
  %36 = load i32, i32* %6, align 4
  %37 = load i32, i32* %4, align 4
  %38 = sub nsw i32 %37, 1
  %39 = icmp sle i32 %36, %38
  br i1 %39, label %40, label %85

40:                                               ; preds = %35
  store i32 0, i32* %7, align 4
  br label %41

41:                                               ; preds = %78, %40
  %42 = load i32, i32* %7, align 4
  %43 = load i32, i32* %4, align 4
  %44 = load i32, i32* %6, align 4
  %45 = sub nsw i32 %43, %44
  %46 = sub nsw i32 %45, 1
  %47 = icmp sle i32 %42, %46
  br i1 %47, label %48, label %81

48:                                               ; preds = %41
  %49 = load i32, i32* %7, align 4
  %50 = sext i32 %49 to i64
  %51 = getelementptr inbounds [100 x i32], [100 x i32]* %2, i64 0, i64 %50
  %52 = load i32, i32* %51, align 4
  %53 = load i32, i32* %7, align 4
  %54 = add nsw i32 %53, 1
  %55 = sext i32 %54 to i64
  %56 = getelementptr inbounds [100 x i32], [100 x i32]* %2, i64 0, i64 %55
  %57 = load i32, i32* %56, align 4
  %58 = icmp sgt i32 %52, %57
  br i1 %58, label %59, label %77

59:                                               ; preds = %48
  %60 = load i32, i32* %7, align 4
  %61 = sext i32 %60 to i64
  %62 = getelementptr inbounds [100 x i32], [100 x i32]* %2, i64 0, i64 %61
  %63 = load i32, i32* %62, align 4
  store i32 %63, i32* %8, align 4
  %64 = load i32, i32* %7, align 4
  %65 = add nsw i32 %64, 1
  %66 = sext i32 %65 to i64
  %67 = getelementptr inbounds [100 x i32], [100 x i32]* %2, i64 0, i64 %66
  %68 = load i32, i32* %67, align 4
  %69 = load i32, i32* %7, align 4
  %70 = sext i32 %69 to i64
  %71 = getelementptr inbounds [100 x i32], [100 x i32]* %2, i64 0, i64 %70
  store i32 %68, i32* %71, align 4
  %72 = load i32, i32* %8, align 4
  %73 = load i32, i32* %7, align 4
  %74 = add nsw i32 %73, 1
  %75 = sext i32 %74 to i64
  %76 = getelementptr inbounds [100 x i32], [100 x i32]* %2, i64 0, i64 %75
  store i32 %72, i32* %76, align 4
  br label %77

77:                                               ; preds = %59, %48
  br label %78

78:                                               ; preds = %77
  %79 = load i32, i32* %7, align 4
  %80 = add nsw i32 %79, 1
  store i32 %80, i32* %7, align 4
  br label %41

81:                                               ; preds = %41
  br label %82

82:                                               ; preds = %81
  %83 = load i32, i32* %6, align 4
  %84 = add nsw i32 %83, 1
  store i32 %84, i32* %6, align 4
  br label %35

85:                                               ; preds = %35
  store i32 0, i32* %6, align 4
  br label %86

86:                                               ; preds = %120, %85
  %87 = load i32, i32* %6, align 4
  %88 = load i32, i32* %4, align 4
  %89 = sub nsw i32 %88, 1
  %90 = icmp sle i32 %87, %89
  br i1 %90, label %91, label %123

91:                                               ; preds = %86
  %92 = load i32, i32* %6, align 4
  %93 = add nsw i32 %92, 1
  store i32 %93, i32* %7, align 4
  br label %94

94:                                               ; preds = %116, %91
  %95 = load i32, i32* %7, align 4
  %96 = load i32, i32* %4, align 4
  %97 = icmp sle i32 %95, %96
  br i1 %97, label %98, label %119

98:                                               ; preds = %94
  %99 = load i32, i32* %6, align 4
  %100 = sext i32 %99 to i64
  %101 = getelementptr inbounds [100 x i32], [100 x i32]* %2, i64 0, i64 %100
  %102 = load i32, i32* %101, align 4
  %103 = mul nsw i32 2, %102
  %104 = load i32, i32* %7, align 4
  %105 = sext i32 %104 to i64
  %106 = getelementptr inbounds [100 x i32], [100 x i32]* %2, i64 0, i64 %105
  %107 = load i32, i32* %106, align 4
  %108 = icmp eq i32 %103, %107
  br i1 %108, label %109, label %115

109:                                              ; preds = %98
  %110 = load i32, i32* %10, align 4
  %111 = sext i32 %110 to i64
  %112 = getelementptr inbounds [20 x i32], [20 x i32]* %9, i64 0, i64 %111
  %113 = load i32, i32* %112, align 4
  %114 = add nsw i32 %113, 1
  store i32 %114, i32* %112, align 4
  br label %115

115:                                              ; preds = %109, %98
  br label %116

116:                                              ; preds = %115
  %117 = load i32, i32* %7, align 4
  %118 = add nsw i32 %117, 1
  store i32 %118, i32* %7, align 4
  br label %94

119:                                              ; preds = %94
  br label %120

120:                                              ; preds = %119
  %121 = load i32, i32* %6, align 4
  %122 = add nsw i32 %121, 1
  store i32 %122, i32* %6, align 4
  br label %86

123:                                              ; preds = %86
  %124 = load i32, i32* %10, align 4
  %125 = add nsw i32 %124, 1
  store i32 %125, i32* %10, align 4
  br label %11

126:                                              ; preds = %11
  store i32 0, i32* %4, align 4
  br label %127

127:                                              ; preds = %137, %126
  %128 = load i32, i32* %4, align 4
  %129 = load i32, i32* %10, align 4
  %130 = icmp slt i32 %128, %129
  br i1 %130, label %131, label %140

131:                                              ; preds = %127
  %132 = load i32, i32* %4, align 4
  %133 = sext i32 %132 to i64
  %134 = getelementptr inbounds [20 x i32], [20 x i32]* %9, i64 0, i64 %133
  %135 = load i32, i32* %134, align 4
  %136 = call i32 (i8*, ...) @printf(i8* getelementptr inbounds ([4 x i8], [4 x i8]* @.str.1, i64 0, i64 0), i32 %135)
  br label %137

137:                                              ; preds = %131
  %138 = load i32, i32* %4, align 4
  %139 = add nsw i32 %138, 1
  store i32 %139, i32* %4, align 4
  br label %127

140:                                              ; preds = %127
  ret i32 0
}

declare dso_local i32 @__isoc99_scanf(i8*, ...) #1

declare dso_local i32 @printf(i8*, ...) #1


!llvm.module.flags = !{!0}
!llvm.ident = !{!1}

!0 = !{i32 1, !"wchar_size", i32 4}
!1 = !{!"clang version 10.0.0-4ubuntu1 "}
